target datalayout = "e-m:e-p270:32:32-p271:32:32-p272:64:64-i64:64-i128:128-f80:128-n8:16:32:64-S128"
target triple = "x86_64-unknown-linux-gnu"

%struct.CommitBlockJob = type { %struct.BlockJob, ptr, ptr, ptr, ptr, ptr, i32, i8, i8, ptr }
%struct.BlockJob = type { %struct.Job, i32, i64, %struct.RateLimit, ptr, %struct.Notifier, %struct.Notifier, %struct.Notifier, %struct.Notifier, %struct.Notifier, ptr }
%struct.Job = type { ptr, ptr, ptr, i8, i8, ptr, ptr, %struct.ProgressMeter, ptr, i32, i32, %struct.QEMUTimer, i32, i8, i8, i8, i8, i8, i8, i32, ptr, %struct.NotifierList, %struct.NotifierList, %struct.NotifierList, %struct.NotifierList, %struct.NotifierList, %struct.anon.0, ptr, %struct.anon.1 }
%struct.ProgressMeter = type { i64, i64, %struct.QemuMutex }
%struct.QemuMutex = type { %union.pthread_mutex_t, i8 }
%union.pthread_mutex_t = type { %struct.__pthread_mutex_s }
%struct.__pthread_mutex_s = type { i32, i32, i32, i32, i32, i16, i16, %struct.__pthread_internal_list }
%struct.__pthread_internal_list = type { ptr, ptr }
%struct.QEMUTimer = type { i64, ptr, ptr, ptr, ptr, i32, i32 }
%struct.NotifierList = type { %struct.anon }
%struct.anon = type { ptr }
%struct.anon.0 = type { ptr, ptr }
%struct.anon.1 = type { ptr, ptr }
%struct.RateLimit = type { %struct.QemuMutex, i64, i64, i64, i64, i64 }
%struct.Notifier = type { ptr, %struct.anon.2 }
%struct.anon.2 = type { ptr, ptr }
%struct.timeval = type { i64, i64 }

@.str.1 = private unnamed_addr constant [23 x i8] c"../qemu/block/commit.c\00", align 1
@.str.10 = private unnamed_addr constant [13 x i8] c"n < SIZE_MAX\00", align 1
@__PRETTY_FUNCTION__.commit_run = private unnamed_addr constant [32 x i8] c"int commit_run(Job *, Error **)\00", align 1
@trace_events_enabled_count = external global i32, align 4
@_TRACE_COMMIT_ONE_ITERATION_DSTATE = external global i16, align 2
@message_with_timestamp = external global i8, align 1
@.str.11 = private unnamed_addr constant [77 x i8] c"%d@%zu.%06zu:commit_one_iteration s %p offset %ld bytes %lu is_allocated %d\0A\00", align 1
@.str.12 = private unnamed_addr constant [64 x i8] c"commit_one_iteration s %p offset %ld bytes %lu is_allocated %d\0A\00", align 1
@qemu_loglevel = external global i32, align 4

; Function Attrs: nounwind sspstrong uwtable
define internal zeroext i1 @qemu_loglevel_mask(i32 noundef %mask) #0 {
entry:
  %mask.addr = alloca i32, align 4
  store i32 %mask, ptr %mask.addr, align 4
  %0 = load i32, ptr @qemu_loglevel, align 4
  %1 = load i32, ptr %mask.addr, align 4
  %and = and i32 %0, %1
  %cmp = icmp ne i32 %and, 0
  ret i1 %cmp
}

; Function Attrs: nounwind sspstrong uwtable
define internal void @_nocheck__trace_commit_one_iteration(ptr noundef %s, i64 noundef %offset, i64 noundef %bytes, i32 noundef %is_allocated) #0 {
entry:
  %s.addr = alloca ptr, align 8
  %offset.addr = alloca i64, align 8
  %bytes.addr = alloca i64, align 8
  %is_allocated.addr = alloca i32, align 4
  %_now = alloca %struct.timeval, align 8
  store ptr %s, ptr %s.addr, align 8
  store i64 %offset, ptr %offset.addr, align 8
  store i64 %bytes, ptr %bytes.addr, align 8
  store i32 %is_allocated, ptr %is_allocated.addr, align 4
  %0 = load i32, ptr @trace_events_enabled_count, align 4
  %tobool = icmp ne i32 %0, 0
  %lnot = xor i1 %tobool, true
  %lnot1 = xor i1 %lnot, true
  %lnot.ext = zext i1 %lnot1 to i32
  %conv = sext i32 %lnot.ext to i64
  %tobool2 = icmp ne i64 %conv, 0
  br i1 %tobool2, label %land.lhs.true, label %if.end11

land.lhs.true:                                    ; preds = %entry
  %1 = load i16, ptr @_TRACE_COMMIT_ONE_ITERATION_DSTATE, align 2
  %conv3 = zext i16 %1 to i32
  %tobool4 = icmp ne i32 %conv3, 0
  br i1 %tobool4, label %land.lhs.true5, label %if.end11

land.lhs.true5:                                   ; preds = %land.lhs.true
  %call = call zeroext i1 @qemu_loglevel_mask(i32 noundef 32768)
  br i1 %call, label %if.then, label %if.end11

if.then:                                          ; preds = %land.lhs.true5
  %2 = load i8, ptr @message_with_timestamp, align 1
  %tobool7 = trunc i8 %2 to i1
  br i1 %tobool7, label %if.then8, label %if.else

if.then8:                                         ; preds = %if.then
  %call9 = call i32 @gettimeofday(ptr noundef %_now, ptr noundef null) #5
  %call10 = call i32 @qemu_get_thread_id()
  %tv_sec = getelementptr inbounds %struct.timeval, ptr %_now, i32 0, i32 0
  %3 = load i64, ptr %tv_sec, align 8
  %tv_usec = getelementptr inbounds %struct.timeval, ptr %_now, i32 0, i32 1
  %4 = load i64, ptr %tv_usec, align 8
  %5 = load ptr, ptr %s.addr, align 8
  %6 = load i64, ptr %offset.addr, align 8
  %7 = load i64, ptr %bytes.addr, align 8
  %8 = load i32, ptr %is_allocated.addr, align 4
  call void (ptr, ...) @qemu_log(ptr noundef @.str.11, i32 noundef %call10, i64 noundef %3, i64 noundef %4, ptr noundef %5, i64 noundef %6, i64 noundef %7, i32 noundef %8)
  br label %if.end

if.else:                                          ; preds = %if.then
  %9 = load ptr, ptr %s.addr, align 8
  %10 = load i64, ptr %offset.addr, align 8
  %11 = load i64, ptr %bytes.addr, align 8
  %12 = load i32, ptr %is_allocated.addr, align 4
  call void (ptr, ...) @qemu_log(ptr noundef @.str.12, ptr noundef %9, i64 noundef %10, i64 noundef %11, i32 noundef %12)
  br label %if.end

if.end:                                           ; preds = %if.else, %if.then8
  br label %if.end11

if.end11:                                         ; preds = %if.end, %land.lhs.true5, %land.lhs.true, %entry
  ret void
}

; Function Attrs: nounwind sspstrong uwtable
define internal void @qemu_cleanup_generic_vfree(ptr noundef %p) #0 {
entry:
  %p.addr = alloca ptr, align 8
  %pp = alloca ptr, align 8
  store ptr %p, ptr %p.addr, align 8
  %0 = load ptr, ptr %p.addr, align 8
  store ptr %0, ptr %pp, align 8
  %1 = load ptr, ptr %pp, align 8
  %2 = load ptr, ptr %1, align 8
  call void @qemu_vfree(ptr noundef %2)
  ret void
}

; Function Attrs: nounwind sspstrong uwtable
define internal void @trace_commit_one_iteration(ptr noundef %s, i64 noundef %offset, i64 noundef %bytes, i32 noundef %is_allocated) #0 {
entry:
  %s.addr = alloca ptr, align 8
  %offset.addr = alloca i64, align 8
  %bytes.addr = alloca i64, align 8
  %is_allocated.addr = alloca i32, align 4
  store ptr %s, ptr %s.addr, align 8
  store i64 %offset, ptr %offset.addr, align 8
  store i64 %bytes, ptr %bytes.addr, align 8
  store i32 %is_allocated, ptr %is_allocated.addr, align 4
  %0 = load ptr, ptr %s.addr, align 8
  %1 = load i64, ptr %offset.addr, align 8
  %2 = load i64, ptr %bytes.addr, align 8
  %3 = load i32, ptr %is_allocated.addr, align 4
  call void @_nocheck__trace_commit_one_iteration(ptr noundef %0, i64 noundef %1, i64 noundef %2, i32 noundef %3)
  ret void
}

; Function Attrs: nounwind sspstrong uwtable
define internal i32 @commit_run(ptr noundef %job, ptr noundef %errp) #0 {
entry:
  %retval = alloca i32, align 4
  %job.addr = alloca ptr, align 8
  %errp.addr = alloca ptr, align 8
  %s = alloca ptr, align 8
  %__mptr = alloca ptr, align 8
  %tmp = alloca ptr, align 8
  %offset = alloca i64, align 8
  %ret = alloca i32, align 4
  %n = alloca i64, align 8
  %buf = alloca ptr, align 8
  %len = alloca i64, align 8
  %base_len = alloca i64, align 8
  %cleanup.dest.slot = alloca i32, align 4
  %copy = alloca i8, align 1
  %error_in_source = alloca i8, align 1
  %action = alloca i32, align 4
  store ptr %job, ptr %job.addr, align 8
  store ptr %errp, ptr %errp.addr, align 8
  %0 = load ptr, ptr %job.addr, align 8
  store ptr %0, ptr %__mptr, align 8
  %1 = load ptr, ptr %__mptr, align 8
  %add.ptr = getelementptr i8, ptr %1, i64 0
  store ptr %add.ptr, ptr %tmp, align 8
  %2 = load ptr, ptr %tmp, align 8
  store ptr %2, ptr %s, align 8
  store i32 0, ptr %ret, align 4
  store i64 0, ptr %n, align 8
  store ptr null, ptr %buf, align 8
  %3 = load ptr, ptr %s, align 8
  %top = getelementptr inbounds %struct.CommitBlockJob, ptr %3, i32 0, i32 2
  %4 = load ptr, ptr %top, align 8
  %call = call i64 @blk_co_getlength(ptr noundef %4)
  store i64 %call, ptr %len, align 8
  %5 = load i64, ptr %len, align 8
  %cmp = icmp slt i64 %5, 0
  br i1 %cmp, label %if.then, label %if.end

if.then:                                          ; preds = %entry
  %6 = load i64, ptr %len, align 8
  %conv = trunc i64 %6 to i32
  store i32 %conv, ptr %retval, align 4
  store i32 1, ptr %cleanup.dest.slot, align 4
  br label %cleanup

if.end:                                           ; preds = %entry
  %7 = load ptr, ptr %s, align 8
  %common = getelementptr inbounds %struct.CommitBlockJob, ptr %7, i32 0, i32 0
  %job1 = getelementptr inbounds %struct.BlockJob, ptr %common, i32 0, i32 0
  %8 = load i64, ptr %len, align 8
  call void @job_progress_set_remaining(ptr noundef %job1, i64 noundef %8)
  %9 = load ptr, ptr %s, align 8
  %base = getelementptr inbounds %struct.CommitBlockJob, ptr %9, i32 0, i32 3
  %10 = load ptr, ptr %base, align 8
  %call2 = call i64 @blk_co_getlength(ptr noundef %10)
  store i64 %call2, ptr %base_len, align 8
  %11 = load i64, ptr %base_len, align 8
  %cmp3 = icmp slt i64 %11, 0
  br i1 %cmp3, label %if.then5, label %if.end7

if.then5:                                         ; preds = %if.end
  %12 = load i64, ptr %base_len, align 8
  %conv6 = trunc i64 %12 to i32
  store i32 %conv6, ptr %retval, align 4
  store i32 1, ptr %cleanup.dest.slot, align 4
  br label %cleanup

if.end7:                                          ; preds = %if.end
  %13 = load i64, ptr %base_len, align 8
  %14 = load i64, ptr %len, align 8
  %cmp8 = icmp slt i64 %13, %14
  br i1 %cmp8, label %if.then10, label %if.end15

if.then10:                                        ; preds = %if.end7
  %15 = load ptr, ptr %s, align 8
  %base11 = getelementptr inbounds %struct.CommitBlockJob, ptr %15, i32 0, i32 3
  %16 = load ptr, ptr %base11, align 8
  %17 = load i64, ptr %len, align 8
  %call12 = call i32 @blk_co_truncate(ptr noundef %16, i64 noundef %17, i1 noundef zeroext false, i32 noundef 0, i32 noundef 0, ptr noundef null)
  store i32 %call12, ptr %ret, align 4
  %18 = load i32, ptr %ret, align 4
  %tobool = icmp ne i32 %18, 0
  br i1 %tobool, label %if.then13, label %if.end14

if.then13:                                        ; preds = %if.then10
  %19 = load i32, ptr %ret, align 4
  store i32 %19, ptr %retval, align 4
  store i32 1, ptr %cleanup.dest.slot, align 4
  br label %cleanup

if.end14:                                         ; preds = %if.then10
  br label %if.end15

if.end15:                                         ; preds = %if.end14, %if.end7
  %20 = load ptr, ptr %s, align 8
  %top16 = getelementptr inbounds %struct.CommitBlockJob, ptr %20, i32 0, i32 2
  %21 = load ptr, ptr %top16, align 8
  %call17 = call ptr @blk_blockalign(ptr noundef %21, i64 noundef 524288)
  store ptr %call17, ptr %buf, align 8
  store i64 0, ptr %offset, align 8
  br label %for.cond

for.cond:                                         ; preds = %for.inc, %if.end15
  %22 = load i64, ptr %offset, align 8
  %23 = load i64, ptr %len, align 8
  %cmp18 = icmp slt i64 %22, %23
  br i1 %cmp18, label %for.body, label %for.end

for.body:                                         ; preds = %for.cond
  store i8 1, ptr %error_in_source, align 1
  %24 = load ptr, ptr %s, align 8
  %common20 = getelementptr inbounds %struct.CommitBlockJob, ptr %24, i32 0, i32 0
  call void @block_job_ratelimit_sleep(ptr noundef %common20)
  %25 = load ptr, ptr %s, align 8
  %common21 = getelementptr inbounds %struct.CommitBlockJob, ptr %25, i32 0, i32 0
  %job22 = getelementptr inbounds %struct.BlockJob, ptr %common21, i32 0, i32 0
  %call23 = call zeroext i1 @job_is_cancelled(ptr noundef %job22)
  br i1 %call23, label %if.then24, label %if.end25

if.then24:                                        ; preds = %for.body
  br label %for.end

if.end25:                                         ; preds = %for.body
  %26 = load ptr, ptr %s, align 8
  %top26 = getelementptr inbounds %struct.CommitBlockJob, ptr %26, i32 0, i32 2
  %27 = load ptr, ptr %top26, align 8
  %28 = load ptr, ptr %s, align 8
  %base_overlay = getelementptr inbounds %struct.CommitBlockJob, ptr %28, i32 0, i32 5
  %29 = load ptr, ptr %base_overlay, align 8
  %30 = load i64, ptr %offset, align 8
  %call27 = call i32 @blk_co_is_allocated_above(ptr noundef %27, ptr noundef %29, i1 noundef zeroext true, i64 noundef %30, i64 noundef 524288, ptr noundef %n)
  store i32 %call27, ptr %ret, align 4
  %31 = load i32, ptr %ret, align 4
  %cmp28 = icmp sgt i32 %31, 0
  %frombool = zext i1 %cmp28 to i8
  store i8 %frombool, ptr %copy, align 1
  %32 = load ptr, ptr %s, align 8
  %33 = load i64, ptr %offset, align 8
  %34 = load i64, ptr %n, align 8
  %35 = load i32, ptr %ret, align 4
  call void @trace_commit_one_iteration(ptr noundef %32, i64 noundef %33, i64 noundef %34, i32 noundef %35)
  %36 = load i8, ptr %copy, align 1
  %tobool30 = trunc i8 %36 to i1
  br i1 %tobool30, label %if.then31, label %if.end48

if.then31:                                        ; preds = %if.end25
  %37 = load i64, ptr %n, align 8
  %cmp32 = icmp ult i64 %37, -1
  br i1 %cmp32, label %if.then34, label %if.else

if.then34:                                        ; preds = %if.then31
  br label %if.end35

if.else:                                          ; preds = %if.then31
  call void @__assert_fail(ptr noundef @.str.10, ptr noundef @.str.1, i32 noundef 173, ptr noundef @__PRETTY_FUNCTION__.commit_run) #4
  unreachable

if.end35:                                         ; preds = %if.then34
  %38 = load ptr, ptr %s, align 8
  %top36 = getelementptr inbounds %struct.CommitBlockJob, ptr %38, i32 0, i32 2
  %39 = load ptr, ptr %top36, align 8
  %40 = load i64, ptr %offset, align 8
  %41 = load i64, ptr %n, align 8
  %42 = load ptr, ptr %buf, align 8
  %call37 = call i32 @blk_co_pread(ptr noundef %39, i64 noundef %40, i64 noundef %41, ptr noundef %42, i32 noundef 0)
  store i32 %call37, ptr %ret, align 4
  %43 = load i32, ptr %ret, align 4
  %cmp38 = icmp sge i32 %43, 0
  br i1 %cmp38, label %if.then40, label %if.end47

if.then40:                                        ; preds = %if.end35
  %44 = load ptr, ptr %s, align 8
  %base41 = getelementptr inbounds %struct.CommitBlockJob, ptr %44, i32 0, i32 3
  %45 = load ptr, ptr %base41, align 8
  %46 = load i64, ptr %offset, align 8
  %47 = load i64, ptr %n, align 8
  %48 = load ptr, ptr %buf, align 8
  %call42 = call i32 @blk_co_pwrite(ptr noundef %45, i64 noundef %46, i64 noundef %47, ptr noundef %48, i32 noundef 0)
  store i32 %call42, ptr %ret, align 4
  %49 = load i32, ptr %ret, align 4
  %cmp43 = icmp slt i32 %49, 0
  br i1 %cmp43, label %if.then45, label %if.end46

if.then45:                                        ; preds = %if.then40
  store i8 0, ptr %error_in_source, align 1
  br label %if.end46

if.end46:                                         ; preds = %if.then45, %if.then40
  br label %if.end47

if.end47:                                         ; preds = %if.end46, %if.end35
  br label %if.end48

if.end48:                                         ; preds = %if.end47, %if.end25
  %50 = load i32, ptr %ret, align 4
  %cmp49 = icmp slt i32 %50, 0
  br i1 %cmp49, label %if.then51, label %if.end60

if.then51:                                        ; preds = %if.end48
  %51 = load ptr, ptr %s, align 8
  %common52 = getelementptr inbounds %struct.CommitBlockJob, ptr %51, i32 0, i32 0
  %52 = load ptr, ptr %s, align 8
  %on_error = getelementptr inbounds %struct.CommitBlockJob, ptr %52, i32 0, i32 6
  %53 = load i32, ptr %on_error, align 8
  %54 = load i8, ptr %error_in_source, align 1
  %tobool53 = trunc i8 %54 to i1
  %conv54 = zext i1 %tobool53 to i32
  %55 = load i32, ptr %ret, align 4
  %sub = sub i32 0, %55
  %call55 = call i32 @block_job_error_action(ptr noundef %common52, i32 noundef %53, i32 noundef %conv54, i32 noundef %sub)
  store i32 %call55, ptr %action, align 4
  %56 = load i32, ptr %action, align 4
  %cmp56 = icmp eq i32 %56, 1
  br i1 %cmp56, label %if.then58, label %if.else59

if.then58:                                        ; preds = %if.then51
  %57 = load i32, ptr %ret, align 4
  store i32 %57, ptr %retval, align 4
  store i32 1, ptr %cleanup.dest.slot, align 4
  br label %cleanup

if.else59:                                        ; preds = %if.then51
  store i64 0, ptr %n, align 8
  br label %for.inc

if.end60:                                         ; preds = %if.end48
  %58 = load ptr, ptr %s, align 8
  %common61 = getelementptr inbounds %struct.CommitBlockJob, ptr %58, i32 0, i32 0
  %job62 = getelementptr inbounds %struct.BlockJob, ptr %common61, i32 0, i32 0
  %59 = load i64, ptr %n, align 8
  call void @job_progress_update(ptr noundef %job62, i64 noundef %59)
  %60 = load i8, ptr %copy, align 1
  %tobool63 = trunc i8 %60 to i1
  br i1 %tobool63, label %if.then64, label %if.end66

if.then64:                                        ; preds = %if.end60
  %61 = load ptr, ptr %s, align 8
  %common65 = getelementptr inbounds %struct.CommitBlockJob, ptr %61, i32 0, i32 0
  %62 = load i64, ptr %n, align 8
  call void @block_job_ratelimit_processed_bytes(ptr noundef %common65, i64 noundef %62)
  br label %if.end66

if.end66:                                         ; preds = %if.then64, %if.end60
  br label %for.inc

for.inc:                                          ; preds = %if.end66, %if.else59
  %63 = load i64, ptr %n, align 8
  %64 = load i64, ptr %offset, align 8
  %add = add i64 %64, %63
  store i64 %add, ptr %offset, align 8
  br label %for.cond, !llvm.loop !8

for.end:                                          ; preds = %if.then24, %for.cond
  store i32 0, ptr %retval, align 4
  store i32 1, ptr %cleanup.dest.slot, align 4
  br label %cleanup

cleanup:                                          ; preds = %for.end, %if.then58, %if.then13, %if.then5, %if.then
  call void @qemu_cleanup_generic_vfree(ptr noundef %buf)
  %65 = load i32, ptr %retval, align 4
  ret i32 %65
}