; Function Attrs: nounwind sspstrong uwtable
define internal i32 @commit_run(ptr noundef %job, ptr readnone captures(none) %errp) #0 {
entry:
  %_now.i.i = alloca %struct.timeval, align 8
  %n = alloca i64, align 8
  store i64 0, ptr %n, align 8
  %top = getelementptr inbounds nuw i8, ptr %job, i64 528
  %0 = load ptr, ptr %top, align 8
  %call = tail call i64 @blk_co_getlength(ptr noundef %0) #6
  %cmp = icmp slt i64 %call, 0
  br i1 %cmp, label %if.then, label %if.end

if.then:                                          ; preds = %entry
  %conv = trunc i64 %call to i32
  br label %cleanup

if.end:                                           ; preds = %entry
  tail call void @job_progress_set_remaining(ptr noundef nonnull %job, i64 noundef %call) #6
  %base = getelementptr inbounds nuw i8, ptr %job, i64 536
  %1 = load ptr, ptr %base, align 8
  %call2 = tail call i64 @blk_co_getlength(ptr noundef %1) #6
  %cmp3 = icmp slt i64 %call2, 0
  br i1 %cmp3, label %if.then5, label %if.end7

if.then5:                                         ; preds = %if.end
  %conv6 = trunc i64 %call2 to i32
  br label %cleanup

if.end7:                                          ; preds = %if.end
  %cmp8 = icmp samesign ult i64 %call2, %call
  br i1 %cmp8, label %if.then10, label %if.end15

if.then10:                                        ; preds = %if.end7
  %2 = load ptr, ptr %base, align 8
  %call12 = tail call i32 @blk_co_truncate(ptr noundef %2, i64 noundef %call, i1 noundef zeroext false, i32 noundef 0, i32 noundef 0, ptr noundef null) #6
  %tobool.not = icmp eq i32 %call12, 0
  br i1 %tobool.not, label %if.end15.thread, label %cleanup

if.end15.thread:                                  ; preds = %if.then10
  %3 = load ptr, ptr %top, align 8
  %call1752 = tail call ptr @blk_blockalign(ptr noundef %3, i64 noundef 524288) #6
  br label %for.body.lr.ph

if.end15:                                         ; preds = %if.end7
  %4 = load ptr, ptr %top, align 8
  %call17 = tail call ptr @blk_blockalign(ptr noundef %4, i64 noundef 524288) #6
  %cmp1847.not = icmp eq i64 %call, 0
  br i1 %cmp1847.not, label %cleanup, label %for.body.lr.ph

for.body.lr.ph:                                   ; preds = %if.end15.thread, %if.end15
  %call1754 = phi ptr [ %call1752, %if.end15.thread ], [ %call17, %if.end15 ]
  %base_overlay = getelementptr inbounds nuw i8, ptr %job, i64 552
  %tv_usec.i.i = getelementptr inbounds nuw i8, ptr %_now.i.i, i64 8
  %on_error = getelementptr inbounds nuw i8, ptr %job, i64 560
  br label %for.body

for.body:                                         ; preds = %for.body.lr.ph, %for.inc
  %offset.048 = phi i64 [ 0, %for.body.lr.ph ], [ %add, %for.inc ]
  call void @block_job_ratelimit_sleep(ptr noundef nonnull %job) #6
  %call23 = call zeroext i1 @job_is_cancelled(ptr noundef nonnull %job) #6
  br i1 %call23, label %cleanup, label %if.end25

if.end25:                                         ; preds = %for.body
  %5 = load ptr, ptr %top, align 8
  %6 = load ptr, ptr %base_overlay, align 8
  %call27 = call i32 @blk_co_is_allocated_above(ptr noundef %5, ptr noundef %6, i1 noundef zeroext true, i64 noundef %offset.048, i64 noundef 524288, ptr noundef nonnull %n) #6
  %cmp28 = icmp sgt i32 %call27, 0
  %7 = load i64, ptr %n, align 8
  call void @llvm.lifetime.start.p0(i64 16, ptr nonnull %_now.i.i)
  %8 = load i32, ptr @trace_events_enabled_count, align 4
  %tobool.i.i = icmp ne i32 %8, 0
  %9 = load i16, ptr @_TRACE_COMMIT_ONE_ITERATION_DSTATE, align 2
  %tobool4.i.i = icmp ne i16 %9, 0
  %or.cond.i.i = select i1 %tobool.i.i, i1 %tobool4.i.i, i1 false
  br i1 %or.cond.i.i, label %land.lhs.true5.i.i, label %trace_commit_one_iteration.exit

land.lhs.true5.i.i:                               ; preds = %if.end25
  %10 = load i32, ptr @qemu_loglevel, align 4
  %and.i.i.i = and i32 %10, 32768
  %cmp.i.not.i.i = icmp eq i32 %and.i.i.i, 0
  br i1 %cmp.i.not.i.i, label %trace_commit_one_iteration.exit, label %if.then.i.i

if.then.i.i:                                      ; preds = %land.lhs.true5.i.i
  %11 = load i8, ptr @message_with_timestamp, align 1
  %tobool7.i.i = trunc i8 %11 to i1
  br i1 %tobool7.i.i, label %if.then8.i.i, label %if.else.i.i

if.then8.i.i:                                     ; preds = %if.then.i.i
  %call9.i.i = call i32 @gettimeofday(ptr noundef nonnull %_now.i.i, ptr noundef null) #6
  %call10.i.i = call i32 @qemu_get_thread_id() #6
  %12 = load i64, ptr %_now.i.i, align 8
  %13 = load i64, ptr %tv_usec.i.i, align 8
  call void (ptr, ...) @qemu_log(ptr noundef nonnull @.str.11, i32 noundef %call10.i.i, i64 noundef %12, i64 noundef %13, ptr noundef nonnull %job, i64 noundef range(i64 -9223372036854775808, 9223372036854775807) %offset.048, i64 noundef %7, i32 noundef %call27) #6
  br label %trace_commit_one_iteration.exit

if.else.i.i:                                      ; preds = %if.then.i.i
  call void (ptr, ...) @qemu_log(ptr noundef nonnull @.str.12, ptr noundef nonnull %job, i64 noundef range(i64 -9223372036854775808, 9223372036854775807) %offset.048, i64 noundef %7, i32 noundef %call27) #6
  br label %trace_commit_one_iteration.exit

trace_commit_one_iteration.exit:                  ; preds = %if.end25, %land.lhs.true5.i.i, %if.then8.i.i, %if.else.i.i
  call void @llvm.lifetime.end.p0(i64 16, ptr nonnull %_now.i.i)
  br i1 %cmp28, label %if.then31, label %if.end48.thread43

if.then31:                                        ; preds = %trace_commit_one_iteration.exit
  %14 = load i64, ptr %n, align 8
  %cmp32.not = icmp eq i64 %14, -1
  br i1 %cmp32.not, label %if.else, label %if.end35

if.else:                                          ; preds = %if.then31
  call void @__assert_fail(ptr noundef nonnull @.str.10, ptr noundef nonnull @.str.1, i32 noundef 173, ptr noundef nonnull @__PRETTY_FUNCTION__.commit_run) #7
  unreachable

if.end35:                                         ; preds = %if.then31
  %15 = load ptr, ptr %top, align 8
  %call37 = call i32 @blk_co_pread(ptr noundef %15, i64 noundef %offset.048, i64 noundef %14, ptr noundef %call1754, i32 noundef 0) #6
  %cmp38 = icmp sgt i32 %call37, -1
  br i1 %cmp38, label %if.end48, label %if.then51

if.end48:                                         ; preds = %if.end35
  %16 = load ptr, ptr %base, align 8
  %17 = load i64, ptr %n, align 8
  %call42 = call i32 @blk_co_pwrite(ptr noundef %16, i64 noundef %offset.048, i64 noundef %17, ptr noundef %call1754, i32 noundef 0) #6
  %cmp49 = icmp slt i32 %call42, 0
  br i1 %cmp49, label %if.then51, label %if.then64

if.end48.thread43:                                ; preds = %trace_commit_one_iteration.exit
  %cmp4946 = icmp slt i32 %call27, 0
  br i1 %cmp4946, label %if.then51, label %if.end60.thread

if.end60.thread:                                  ; preds = %if.end48.thread43
  %18 = load i64, ptr %n, align 8
  call void @job_progress_update(ptr noundef nonnull %job, i64 noundef %18) #6
  br label %for.inc

if.then51:                                        ; preds = %if.end35, %if.end48.thread43, %if.end48
  %error_in_source.042 = phi i32 [ 0, %if.end48 ], [ 1, %if.end48.thread43 ], [ 1, %if.end35 ]
  %ret.041 = phi i32 [ %call42, %if.end48 ], [ %call27, %if.end48.thread43 ], [ %call37, %if.end35 ]
  %19 = load i32, ptr %on_error, align 8
  %sub = sub i32 0, %ret.041
  %call55 = call i32 @block_job_error_action(ptr noundef nonnull %job, i32 noundef %19, i32 noundef %error_in_source.042, i32 noundef %sub) #6
  %cmp56 = icmp eq i32 %call55, 1
  br i1 %cmp56, label %cleanup, label %if.else59

if.else59:                                        ; preds = %if.then51
  store i64 0, ptr %n, align 8
  br label %for.inc

if.then64:                                        ; preds = %if.end48
  %20 = load i64, ptr %n, align 8
  call void @job_progress_update(ptr noundef nonnull %job, i64 noundef %20) #6
  %21 = load i64, ptr %n, align 8
  call void @block_job_ratelimit_processed_bytes(ptr noundef nonnull %job, i64 noundef %21) #6
  br label %for.inc

for.inc:                                          ; preds = %if.end60.thread, %if.then64, %if.else59
  %22 = load i64, ptr %n, align 8
  %add = add i64 %22, %offset.048
  %cmp18 = icmp slt i64 %add, %call
  br i1 %cmp18, label %for.body, label %cleanup, !llvm.loop !8

cleanup:                                          ; preds = %if.then51, %for.body, %for.inc, %if.end15, %if.then10, %if.then5, %if.then
  %buf.0 = phi ptr [ null, %if.then ], [ null, %if.then5 ], [ null, %if.then10 ], [ %call17, %if.end15 ], [ %call1754, %for.inc ], [ %call1754, %for.body ], [ %call1754, %if.then51 ]
  %retval.0 = phi i32 [ %conv, %if.then ], [ %conv6, %if.then5 ], [ %call12, %if.then10 ], [ 0, %if.end15 ], [ %ret.041, %if.then51 ], [ 0, %for.body ], [ 0, %for.inc ]
  call void @qemu_vfree(ptr noundef %buf.0) #6
  ret i32 %retval.0
}